target datalayout = "e-m:e-p270:32:32-p271:32:32-p272:64:64-i64:64-i128:128-f80:128-n8:16:32:64-S128"
target triple = "x86_64-pc-linux-gnu"

%struct._object = type { %union.anon, ptr }
%union.anon = type { i64 }
%struct.anon = type { i32, i32 }

@_Py_NoneStruct = external global %struct._object, align 8
@PyExc_RuntimeError = external global ptr, align 8
@.str.43 = private unnamed_addr constant [12 x i8] c"tracemalloc\00", align 1
@.str.44 = private unnamed_addr constant [6 x i8] c"start\00", align 1
@.str.45 = private unnamed_addr constant [5 x i8] c"stop\00", align 1
@.str.46 = private unnamed_addr constant [23 x i8] c"can't start new thread\00", align 1

; Function Attrs: alwaysinline nounwind uwtable
define internal i32 @_Py_IsImmortal(ptr noundef %0) #5 {
  %2 = alloca ptr, align 8
  store ptr %0, ptr %2, align 8, !tbaa !3
  %3 = load ptr, ptr %2, align 8, !tbaa !3
  %4 = getelementptr inbounds nuw %struct._object, ptr %3, i32 0, i32 0
  %5 = getelementptr inbounds nuw %struct.anon, ptr %4, i32 0, i32 0
  %6 = load i32, ptr %5, align 8, !tbaa !10
  %7 = icmp slt i32 %6, 0
  %8 = zext i1 %7 to i32
  ret i32 %8
}

; Function Attrs: alwaysinline nounwind uwtable
define internal void @Py_DECREF(ptr noundef %0) #5 {
  %2 = alloca ptr, align 8
  store ptr %0, ptr %2, align 8, !tbaa !3
  %3 = load ptr, ptr %2, align 8, !tbaa !3
  %4 = call i32 @_Py_IsImmortal(ptr noundef %3)
  %5 = icmp ne i32 %4, 0
  br i1 %5, label %6, label %7

6:                                                ; preds = %1
  br label %16

7:                                                ; preds = %1
  %8 = load ptr, ptr %2, align 8, !tbaa !3
  %9 = getelementptr inbounds nuw %struct._object, ptr %8, i32 0, i32 0
  %10 = getelementptr inbounds nuw %struct.anon, ptr %9, i32 0, i32 0
  %11 = load i32, ptr %10, align 8, !tbaa !10
  %12 = add i32 %11, -1
  store i32 %12, ptr %10, align 8, !tbaa !10
  %13 = icmp eq i32 %12, 0
  br i1 %13, label %14, label %16

14:                                               ; preds = %7
  %15 = load ptr, ptr %2, align 8, !tbaa !3
  call void @_Py_Dealloc(ptr noundef %15)
  br label %16

16:                                               ; preds = %6, %14, %7
  ret void
}

; Function Attrs: nounwind uwtable
define internal ptr @tracemalloc_track_race(ptr noundef %0, ptr noundef %1) #0 {
  %3 = alloca ptr, align 8
  %4 = alloca ptr, align 8
  %5 = alloca ptr, align 8
  %6 = alloca ptr, align 8
  %7 = alloca ptr, align 8
  %8 = alloca [50 x ptr], align 16
  %9 = alloca ptr, align 8
  %10 = alloca ptr, align 8
  %11 = alloca ptr, align 8
  %12 = alloca ptr, align 8
  %13 = alloca i64, align 8
  %14 = alloca i32, align 4
  %15 = alloca ptr, align 8
  %16 = alloca i64, align 8
  %17 = alloca ptr, align 8
  %18 = alloca ptr, align 8
  %19 = alloca ptr, align 8
  %20 = alloca i64, align 8
  %21 = alloca ptr, align 8
  %22 = alloca i64, align 8
  %23 = alloca ptr, align 8
  %24 = alloca ptr, align 8
  %25 = alloca ptr, align 8
  %26 = alloca ptr, align 8
  %27 = alloca ptr, align 8
  %28 = alloca i64, align 8
  %29 = alloca ptr, align 8
  store ptr %0, ptr %4, align 8, !tbaa !3
  store ptr %1, ptr %5, align 8, !tbaa !3
  call void @llvm.lifetime.start.p0(i64 8, ptr %6) #6
  store ptr null, ptr %6, align 8, !tbaa !3
  call void @llvm.lifetime.start.p0(i64 8, ptr %7) #6
  store ptr null, ptr %7, align 8, !tbaa !3
  call void @llvm.lifetime.start.p0(i64 400, ptr %8) #6
  %30 = getelementptr inbounds [50 x ptr], ptr %8, i64 0, i64 0
  call void @llvm.memset.p0.i64(ptr align 16 %30, i8 0, i64 400, i1 false)
  %31 = call ptr @PyImport_ImportModule(ptr noundef @.str.43)
  store ptr %31, ptr %6, align 8, !tbaa !3
  %32 = load ptr, ptr %6, align 8, !tbaa !3
  %33 = icmp eq ptr %32, null
  br i1 %33, label %34, label %35

34:                                               ; preds = %2
  br label %148

35:                                               ; preds = %2
  %36 = load ptr, ptr %6, align 8, !tbaa !3
  %37 = call ptr @PyObject_GetAttrString(ptr noundef %36, ptr noundef @.str.44)
  store ptr %37, ptr %9, align 8, !tbaa !3
  %38 = load ptr, ptr %9, align 8, !tbaa !3
  %39 = icmp eq ptr %38, null
  br i1 %39, label %40, label %41

40:                                               ; preds = %35
  br label %148

41:                                               ; preds = %35
  %42 = load ptr, ptr %9, align 8, !tbaa !3
  %43 = call ptr @PyObject_CallNoArgs(ptr noundef %42)
  store ptr %43, ptr %10, align 8, !tbaa !3
  %44 = load ptr, ptr %9, align 8, !tbaa !3
  call void @Py_DECREF(ptr noundef %44)
  %45 = load ptr, ptr %10, align 8, !tbaa !3
  %46 = icmp eq ptr %45, null
  br i1 %46, label %47, label %48

47:                                               ; preds = %41
  br label %148

48:                                               ; preds = %41
  %49 = load ptr, ptr %10, align 8, !tbaa !3
  call void @Py_DECREF(ptr noundef %49)
  %50 = load ptr, ptr %6, align 8, !tbaa !3
  %51 = call ptr @PyObject_GetAttrString(ptr noundef %50, ptr noundef @.str.45)
  store ptr %51, ptr %7, align 8, !tbaa !3
  br label %52

52:                                               ; preds = %48
  call void @llvm.lifetime.start.p0(i64 8, ptr %11) #6
  store ptr %6, ptr %11, align 8, !tbaa !23
  call void @llvm.lifetime.start.p0(i64 8, ptr %12) #6
  %53 = load ptr, ptr %11, align 8, !tbaa !23
  %54 = load ptr, ptr %53, align 8, !tbaa !3
  store ptr %54, ptr %12, align 8, !tbaa !3
  %55 = load ptr, ptr %12, align 8, !tbaa !3
  %56 = icmp ne ptr %55, null
  br i1 %56, label %57, label %60

57:                                               ; preds = %52
  %58 = load ptr, ptr %11, align 8, !tbaa !23
  store ptr null, ptr %58, align 8, !tbaa !3
  %59 = load ptr, ptr %12, align 8, !tbaa !3
  call void @Py_DECREF(ptr noundef %59)
  br label %60

60:                                               ; preds = %57, %52
  call void @llvm.lifetime.end.p0(i64 8, ptr %12) #6
  call void @llvm.lifetime.end.p0(i64 8, ptr %11) #6
  br label %61

61:                                               ; preds = %60
  br label %62

62:                                               ; preds = %61
  %63 = load ptr, ptr %7, align 8, !tbaa !3
  %64 = icmp eq ptr %63, null
  br i1 %64, label %65, label %66

65:                                               ; preds = %62
  br label %148

66:                                               ; preds = %62
  call void @llvm.lifetime.start.p0(i64 8, ptr %13) #6
  store i64 0, ptr %13, align 8, !tbaa !22
  br label %67

67:                                               ; preds = %94, %66
  %68 = load i64, ptr %13, align 8, !tbaa !22
  %69 = icmp ult i64 %68, 50
  br i1 %69, label %71, label %70

70:                                               ; preds = %67
  store i32 5, ptr %14, align 4
  br label %97

71:                                               ; preds = %67
  call void @llvm.lifetime.start.p0(i64 8, ptr %15) #6
  %72 = call ptr @PyThread_allocate_lock()
  store ptr %72, ptr %15, align 8, !tbaa !18
  %73 = load ptr, ptr %15, align 8, !tbaa !18
  %74 = icmp ne ptr %73, null
  br i1 %74, label %77, label %75

75:                                               ; preds = %71
  %76 = call ptr @PyErr_NoMemory()
  store i32 2, ptr %14, align 4
  br label %91

77:                                               ; preds = %71
  %78 = load ptr, ptr %15, align 8, !tbaa !18
  %79 = load i64, ptr %13, align 8, !tbaa !22
  %80 = getelementptr [50 x ptr], ptr %8, i64 0, i64 %79
  store ptr %78, ptr %80, align 8, !tbaa !18
  %81 = load ptr, ptr %15, align 8, !tbaa !18
  %82 = call i32 @PyThread_acquire_lock(ptr noundef %81, i32 noundef 1)
  call void @llvm.lifetime.start.p0(i64 8, ptr %16) #6
  %83 = load ptr, ptr %15, align 8, !tbaa !18
  %84 = call i64 @PyThread_start_new_thread(ptr noundef @tracemalloc_track_race_thread, ptr noundef %83)
  store i64 %84, ptr %16, align 8, !tbaa !22
  %85 = load i64, ptr %16, align 8, !tbaa !22
  %86 = icmp eq i64 %85, -1
  br i1 %86, label %87, label %89

87:                                               ; preds = %77
  %88 = load ptr, ptr @PyExc_RuntimeError, align 8, !tbaa !3
  call void @PyErr_SetString(ptr noundef %88, ptr noundef @.str.46)
  store i32 2, ptr %14, align 4
  br label %90

89:                                               ; preds = %77
  store i32 0, ptr %14, align 4
  br label %90

90:                                               ; preds = %87, %89
  call void @llvm.lifetime.end.p0(i64 8, ptr %16) #6
  br label %91

91:                                               ; preds = %75, %90
  call void @llvm.lifetime.end.p0(i64 8, ptr %15) #6
  %92 = load i32, ptr %14, align 4
  switch i32 %92, label %97 [
    i32 0, label %93
  ]

93:                                               ; preds = %91
  br label %94

94:                                               ; preds = %93
  %95 = load i64, ptr %13, align 8, !tbaa !22
  %96 = add i64 %95, 1
  store i64 %96, ptr %13, align 8, !tbaa !22
  br label %67, !llvm.loop !25

97:                                               ; preds = %91, %70
  call void @llvm.lifetime.end.p0(i64 8, ptr %13) #6
  %98 = load i32, ptr %14, align 4
  switch i32 %98, label %188 [
    i32 5, label %99
    i32 2, label %148
  ]

99:                                               ; preds = %97
  %100 = load ptr, ptr %7, align 8, !tbaa !3
  %101 = call ptr @PyObject_CallNoArgs(ptr noundef %100)
  store ptr %101, ptr %10, align 8, !tbaa !3
  br label %102

102:                                              ; preds = %99
  call void @llvm.lifetime.start.p0(i64 8, ptr %17) #6
  store ptr %7, ptr %17, align 8, !tbaa !23
  call void @llvm.lifetime.start.p0(i64 8, ptr %18) #6
  %103 = load ptr, ptr %17, align 8, !tbaa !23
  %104 = load ptr, ptr %103, align 8, !tbaa !3
  store ptr %104, ptr %18, align 8, !tbaa !3
  %105 = load ptr, ptr %18, align 8, !tbaa !3
  %106 = icmp ne ptr %105, null
  br i1 %106, label %107, label %110

107:                                              ; preds = %102
  %108 = load ptr, ptr %17, align 8, !tbaa !23
  store ptr null, ptr %108, align 8, !tbaa !3
  %109 = load ptr, ptr %18, align 8, !tbaa !3
  call void @Py_DECREF(ptr noundef %109)
  br label %110

110:                                              ; preds = %107, %102
  call void @llvm.lifetime.end.p0(i64 8, ptr %18) #6
  call void @llvm.lifetime.end.p0(i64 8, ptr %17) #6
  br label %111

111:                                              ; preds = %110
  br label %112

112:                                              ; preds = %111
  %113 = load ptr, ptr %10, align 8, !tbaa !3
  %114 = icmp eq ptr %113, null
  br i1 %114, label %115, label %116

115:                                              ; preds = %112
  br label %148

116:                                              ; preds = %112
  %117 = load ptr, ptr %10, align 8, !tbaa !3
  call void @Py_DECREF(ptr noundef %117)
  call void @llvm.lifetime.start.p0(i64 8, ptr %19) #6
  %118 = call ptr @PyEval_SaveThread()
  store ptr %118, ptr %19, align 8, !tbaa !11
  call void @llvm.lifetime.start.p0(i64 8, ptr %20) #6
  store i64 0, ptr %20, align 8, !tbaa !22
  br label %119

119:                                              ; preds = %130, %116
  %120 = load i64, ptr %20, align 8, !tbaa !22
  %121 = icmp ult i64 %120, 50
  br i1 %121, label %123, label %122

122:                                              ; preds = %119
  store i32 10, ptr %14, align 4
  call void @llvm.lifetime.end.p0(i64 8, ptr %20) #6
  br label %133

123:                                              ; preds = %119
  call void @llvm.lifetime.start.p0(i64 8, ptr %21) #6
  %124 = load i64, ptr %20, align 8, !tbaa !22
  %125 = getelementptr [50 x ptr], ptr %8, i64 0, i64 %124
  %126 = load ptr, ptr %125, align 8, !tbaa !18
  store ptr %126, ptr %21, align 8, !tbaa !18
  %127 = load ptr, ptr %21, align 8, !tbaa !18
  %128 = call i32 @PyThread_acquire_lock(ptr noundef %127, i32 noundef 1)
  %129 = load ptr, ptr %21, align 8, !tbaa !18
  call void @PyThread_release_lock(ptr noundef %129)
  call void @llvm.lifetime.end.p0(i64 8, ptr %21) #6
  br label %130

130:                                              ; preds = %123
  %131 = load i64, ptr %20, align 8, !tbaa !22
  %132 = add i64 %131, 1
  store i64 %132, ptr %20, align 8, !tbaa !22
  br label %119, !llvm.loop !27

133:                                              ; preds = %122
  %134 = load ptr, ptr %19, align 8, !tbaa !11
  call void @PyEval_RestoreThread(ptr noundef %134)
  call void @llvm.lifetime.end.p0(i64 8, ptr %19) #6
  call void @llvm.lifetime.start.p0(i64 8, ptr %22) #6
  store i64 0, ptr %22, align 8, !tbaa !22
  br label %135

135:                                              ; preds = %144, %133
  %136 = load i64, ptr %22, align 8, !tbaa !22
  %137 = icmp ult i64 %136, 50
  br i1 %137, label %139, label %138

138:                                              ; preds = %135
  store i32 13, ptr %14, align 4
  call void @llvm.lifetime.end.p0(i64 8, ptr %22) #6
  br label %147

139:                                              ; preds = %135
  call void @llvm.lifetime.start.p0(i64 8, ptr %23) #6
  %140 = load i64, ptr %22, align 8, !tbaa !22
  %141 = getelementptr [50 x ptr], ptr %8, i64 0, i64 %140
  %142 = load ptr, ptr %141, align 8, !tbaa !18
  store ptr %142, ptr %23, align 8, !tbaa !18
  %143 = load ptr, ptr %23, align 8, !tbaa !18
  call void @PyThread_free_lock(ptr noundef %143)
  call void @llvm.lifetime.end.p0(i64 8, ptr %23) #6
  br label %144

144:                                              ; preds = %139
  %145 = load i64, ptr %22, align 8, !tbaa !22
  %146 = add i64 %145, 1
  store i64 %146, ptr %22, align 8, !tbaa !22
  br label %135, !llvm.loop !28

147:                                              ; preds = %138
  store ptr @_Py_NoneStruct, ptr %3, align 8
  store i32 1, ptr %14, align 4
  br label %188

148:                                              ; preds = %97, %115, %65, %47, %40, %34
  br label %149

149:                                              ; preds = %148
  call void @llvm.lifetime.start.p0(i64 8, ptr %24) #6
  store ptr %6, ptr %24, align 8, !tbaa !23
  call void @llvm.lifetime.start.p0(i64 8, ptr %25) #6
  %150 = load ptr, ptr %24, align 8, !tbaa !23
  %151 = load ptr, ptr %150, align 8, !tbaa !3
  store ptr %151, ptr %25, align 8, !tbaa !3
  %152 = load ptr, ptr %25, align 8, !tbaa !3
  %153 = icmp ne ptr %152, null
  br i1 %153, label %154, label %157

154:                                              ; preds = %149
  %155 = load ptr, ptr %24, align 8, !tbaa !23
  store ptr null, ptr %155, align 8, !tbaa !3
  %156 = load ptr, ptr %25, align 8, !tbaa !3
  call void @Py_DECREF(ptr noundef %156)
  br label %157

157:                                              ; preds = %154, %149
  call void @llvm.lifetime.end.p0(i64 8, ptr %25) #6
  call void @llvm.lifetime.end.p0(i64 8, ptr %24) #6
  br label %158

158:                                              ; preds = %157
  br label %159

159:                                              ; preds = %158
  br label %160

160:                                              ; preds = %159
  call void @llvm.lifetime.start.p0(i64 8, ptr %26) #6
  store ptr %7, ptr %26, align 8, !tbaa !23
  call void @llvm.lifetime.start.p0(i64 8, ptr %27) #6
  %161 = load ptr, ptr %26, align 8, !tbaa !23
  %162 = load ptr, ptr %161, align 8, !tbaa !3
  store ptr %162, ptr %27, align 8, !tbaa !3
  %163 = load ptr, ptr %27, align 8, !tbaa !3
  %164 = icmp ne ptr %163, null
  br i1 %164, label %165, label %168

165:                                              ; preds = %160
  %166 = load ptr, ptr %26, align 8, !tbaa !23
  store ptr null, ptr %166, align 8, !tbaa !3
  %167 = load ptr, ptr %27, align 8, !tbaa !3
  call void @Py_DECREF(ptr noundef %167)
  br label %168

168:                                              ; preds = %165, %160
  call void @llvm.lifetime.end.p0(i64 8, ptr %27) #6
  call void @llvm.lifetime.end.p0(i64 8, ptr %26) #6
  br label %169

169:                                              ; preds = %168
  br label %170

170:                                              ; preds = %169
  call void @llvm.lifetime.start.p0(i64 8, ptr %28) #6
  store i64 0, ptr %28, align 8, !tbaa !22
  br label %171

171:                                              ; preds = %184, %170
  %172 = load i64, ptr %28, align 8, !tbaa !22
  %173 = icmp ult i64 %172, 50
  br i1 %173, label %175, label %174

174:                                              ; preds = %171
  store i32 20, ptr %14, align 4
  call void @llvm.lifetime.end.p0(i64 8, ptr %28) #6
  br label %187

175:                                              ; preds = %171
  call void @llvm.lifetime.start.p0(i64 8, ptr %29) #6
  %176 = load i64, ptr %28, align 8, !tbaa !22
  %177 = getelementptr [50 x ptr], ptr %8, i64 0, i64 %176
  %178 = load ptr, ptr %177, align 8, !tbaa !18
  store ptr %178, ptr %29, align 8, !tbaa !18
  %179 = load ptr, ptr %29, align 8, !tbaa !18
  %180 = icmp ne ptr %179, null
  br i1 %180, label %181, label %183

181:                                              ; preds = %175
  %182 = load ptr, ptr %29, align 8, !tbaa !18
  call void @PyThread_free_lock(ptr noundef %182)
  br label %183

183:                                              ; preds = %181, %175
  call void @llvm.lifetime.end.p0(i64 8, ptr %29) #6
  br label %184

184:                                              ; preds = %183
  %185 = load i64, ptr %28, align 8, !tbaa !22
  %186 = add i64 %185, 1
  store i64 %186, ptr %28, align 8, !tbaa !22
  br label %171, !llvm.loop !29

187:                                              ; preds = %174
  store ptr null, ptr %3, align 8
  store i32 1, ptr %14, align 4
  br label %188

188:                                              ; preds = %187, %147, %97
  call void @llvm.lifetime.end.p0(i64 400, ptr %8) #6
  call void @llvm.lifetime.end.p0(i64 8, ptr %7) #6
  call void @llvm.lifetime.end.p0(i64 8, ptr %6) #6
  %189 = load ptr, ptr %3, align 8
  ret ptr %189
}