; Function Attrs: nounwind uwtable
define internal noundef ptr @tracemalloc_track_race(ptr readnone captures(none) %0, ptr readnone captures(none) %1) #0 {
  %3 = alloca [50 x ptr], align 16
  call void @llvm.lifetime.start.p0(i64 400, ptr nonnull %3) #4
  call void @llvm.memset.p0.i64(ptr noundef nonnull align 16 dereferenceable(400) %3, i8 0, i64 400, i1 false)
  %4 = tail call ptr @PyImport_ImportModule(ptr noundef nonnull @.str.43) #4
  %5 = icmp eq ptr %4, null
  br i1 %5, label %Py_DECREF.exit88.preheader, label %6

6:                                                ; preds = %2
  %7 = tail call ptr @PyObject_GetAttrString(ptr noundef nonnull %4, ptr noundef nonnull @.str.44) #4
  %8 = icmp eq ptr %7, null
  br i1 %8, label %67, label %9

9:                                                ; preds = %6
  %10 = tail call ptr @PyObject_CallNoArgs(ptr noundef nonnull %7) #4
  %11 = load i32, ptr %7, align 8, !tbaa !3
  %.not.i = icmp sgt i32 %11, -1
  br i1 %.not.i, label %12, label %Py_DECREF.exit

12:                                               ; preds = %9
  %13 = add nsw i32 %11, -1
  store i32 %13, ptr %7, align 8, !tbaa !3
  %14 = icmp eq i32 %13, 0
  br i1 %14, label %15, label %Py_DECREF.exit

15:                                               ; preds = %12
  tail call void @_Py_Dealloc(ptr noundef nonnull %7) #4
  br label %Py_DECREF.exit

Py_DECREF.exit:                                   ; preds = %9, %12, %15
  %16 = icmp eq ptr %10, null
  br i1 %16, label %67, label %17

17:                                               ; preds = %Py_DECREF.exit
  %18 = load i32, ptr %10, align 8, !tbaa !3
  %.not.i77 = icmp sgt i32 %18, -1
  br i1 %.not.i77, label %19, label %Py_DECREF.exit78

19:                                               ; preds = %17
  %20 = add nsw i32 %18, -1
  store i32 %20, ptr %10, align 8, !tbaa !3
  %21 = icmp eq i32 %20, 0
  br i1 %21, label %22, label %Py_DECREF.exit78

22:                                               ; preds = %19
  tail call void @_Py_Dealloc(ptr noundef nonnull %10) #4
  br label %Py_DECREF.exit78

Py_DECREF.exit78:                                 ; preds = %17, %19, %22
  %23 = tail call ptr @PyObject_GetAttrString(ptr noundef nonnull %4, ptr noundef nonnull @.str.45) #4
  %24 = load i32, ptr %4, align 8, !tbaa !3
  %.not.i79 = icmp sgt i32 %24, -1
  br i1 %.not.i79, label %25, label %Py_DECREF.exit80

25:                                               ; preds = %Py_DECREF.exit78
  %26 = add nsw i32 %24, -1
  store i32 %26, ptr %4, align 8, !tbaa !3
  %27 = icmp eq i32 %26, 0
  br i1 %27, label %28, label %Py_DECREF.exit80

28:                                               ; preds = %25
  tail call void @_Py_Dealloc(ptr noundef nonnull %4) #4
  br label %Py_DECREF.exit80

Py_DECREF.exit80:                                 ; preds = %Py_DECREF.exit78, %25, %28
  %29 = icmp eq ptr %23, null
  br i1 %29, label %Py_DECREF.exit88.preheader, label %.preheader

30:                                               ; preds = %35
  %31 = add nuw nsw i64 %.049112, 1
  %exitcond.not = icmp eq i64 %31, 50
  br i1 %exitcond.not, label %42, label %.preheader, !llvm.loop !24

.preheader:                                       ; preds = %Py_DECREF.exit80, %30
  %.049112 = phi i64 [ %31, %30 ], [ 0, %Py_DECREF.exit80 ]
  %32 = tail call ptr @PyThread_allocate_lock() #4
  %.not = icmp eq ptr %32, null
  br i1 %.not, label %33, label %35

33:                                               ; preds = %.preheader
  %34 = tail call ptr @PyErr_NoMemory() #4
  br label %Py_DECREF.exit86

35:                                               ; preds = %.preheader
  %36 = getelementptr [50 x ptr], ptr %3, i64 0, i64 %.049112
  store ptr %32, ptr %36, align 8, !tbaa !26
  %37 = tail call i32 @PyThread_acquire_lock(ptr noundef nonnull %32, i32 noundef 1) #4
  %38 = tail call i64 @PyThread_start_new_thread(ptr noundef nonnull @tracemalloc_track_race_thread, ptr noundef nonnull %32) #4
  %39 = icmp eq i64 %38, -1
  br i1 %39, label %40, label %30

40:                                               ; preds = %35
  %41 = load ptr, ptr @PyExc_RuntimeError, align 8, !tbaa !20
  tail call void @PyErr_SetString(ptr noundef %41, ptr noundef nonnull @.str.46) #4
  br label %Py_DECREF.exit86

42:                                               ; preds = %30
  %43 = tail call ptr @PyObject_CallNoArgs(ptr noundef nonnull %23) #4
  %44 = load i32, ptr %23, align 8, !tbaa !3
  %.not.i81 = icmp sgt i32 %44, -1
  br i1 %.not.i81, label %45, label %Py_DECREF.exit82

45:                                               ; preds = %42
  %46 = add nsw i32 %44, -1
  store i32 %46, ptr %23, align 8, !tbaa !3
  %47 = icmp eq i32 %46, 0
  br i1 %47, label %48, label %Py_DECREF.exit82

48:                                               ; preds = %45
  tail call void @_Py_Dealloc(ptr noundef nonnull %23) #4
  br label %Py_DECREF.exit82

Py_DECREF.exit82:                                 ; preds = %42, %45, %48
  %49 = icmp eq ptr %43, null
  br i1 %49, label %Py_DECREF.exit88.preheader, label %50

50:                                               ; preds = %Py_DECREF.exit82
  %51 = load i32, ptr %43, align 8, !tbaa !3
  %.not.i83 = icmp sgt i32 %51, -1
  br i1 %.not.i83, label %52, label %Py_DECREF.exit84

52:                                               ; preds = %50
  %53 = add nsw i32 %51, -1
  store i32 %53, ptr %43, align 8, !tbaa !3
  %54 = icmp eq i32 %53, 0
  br i1 %54, label %55, label %Py_DECREF.exit84

55:                                               ; preds = %52
  tail call void @_Py_Dealloc(ptr noundef nonnull %43) #4
  br label %Py_DECREF.exit84

Py_DECREF.exit84:                                 ; preds = %50, %52, %55
  %56 = tail call ptr @PyEval_SaveThread() #4
  br label %58

57:                                               ; preds = %58
  tail call void @PyEval_RestoreThread(ptr noundef %56) #4
  br label %63

58:                                               ; preds = %Py_DECREF.exit84, %58
  %.051113 = phi i64 [ 0, %Py_DECREF.exit84 ], [ %62, %58 ]
  %59 = getelementptr [50 x ptr], ptr %3, i64 0, i64 %.051113
  %60 = load ptr, ptr %59, align 8, !tbaa !26
  %61 = tail call i32 @PyThread_acquire_lock(ptr noundef %60, i32 noundef 1) #4
  tail call void @PyThread_release_lock(ptr noundef %60) #4
  %62 = add nuw nsw i64 %.051113, 1
  %exitcond117.not = icmp eq i64 %62, 50
  br i1 %exitcond117.not, label %57, label %58, !llvm.loop !27

63:                                               ; preds = %57, %63
  %.052114 = phi i64 [ 0, %57 ], [ %66, %63 ]
  %64 = getelementptr [50 x ptr], ptr %3, i64 0, i64 %.052114
  %65 = load ptr, ptr %64, align 8, !tbaa !26
  tail call void @PyThread_free_lock(ptr noundef %65) #4
  %66 = add nuw nsw i64 %.052114, 1
  %exitcond118.not = icmp eq i64 %66, 50
  br i1 %exitcond118.not, label %.loopexit, label %63, !llvm.loop !28

67:                                               ; preds = %Py_DECREF.exit, %6
  %68 = load i32, ptr %4, align 8, !tbaa !3
  %.not.i85 = icmp sgt i32 %68, -1
  br i1 %.not.i85, label %69, label %Py_DECREF.exit88.preheader

69:                                               ; preds = %67
  %70 = add nsw i32 %68, -1
  store i32 %70, ptr %4, align 8, !tbaa !3
  %71 = icmp eq i32 %70, 0
  br i1 %71, label %Py_DECREF.exit88.sink.split, label %Py_DECREF.exit88.preheader

Py_DECREF.exit86:                                 ; preds = %40, %33
  %72 = load i32, ptr %23, align 8, !tbaa !3
  %.not.i87 = icmp sgt i32 %72, -1
  br i1 %.not.i87, label %73, label %Py_DECREF.exit88.preheader

73:                                               ; preds = %Py_DECREF.exit86
  %74 = add nsw i32 %72, -1
  store i32 %74, ptr %23, align 8, !tbaa !3
  %75 = icmp eq i32 %74, 0
  br i1 %75, label %Py_DECREF.exit88.sink.split, label %Py_DECREF.exit88.preheader

Py_DECREF.exit88.sink.split:                      ; preds = %73, %69
  %.sink = phi ptr [ %4, %69 ], [ %23, %73 ]
  tail call void @_Py_Dealloc(ptr noundef nonnull %.sink) #4
  br label %Py_DECREF.exit88.preheader

Py_DECREF.exit88.preheader:                       ; preds = %Py_DECREF.exit88.sink.split, %2, %Py_DECREF.exit80, %Py_DECREF.exit82, %69, %67, %73, %Py_DECREF.exit86
  br label %Py_DECREF.exit88

Py_DECREF.exit88:                                 ; preds = %Py_DECREF.exit88.preheader, %79
  %.048115 = phi i64 [ %80, %79 ], [ 0, %Py_DECREF.exit88.preheader ]
  %76 = getelementptr [50 x ptr], ptr %3, i64 0, i64 %.048115
  %77 = load ptr, ptr %76, align 8, !tbaa !26
  %.not76 = icmp eq ptr %77, null
  br i1 %.not76, label %79, label %78

78:                                               ; preds = %Py_DECREF.exit88
  tail call void @PyThread_free_lock(ptr noundef nonnull %77) #4
  br label %79

79:                                               ; preds = %78, %Py_DECREF.exit88
  %80 = add nuw nsw i64 %.048115, 1
  %exitcond119.not = icmp eq i64 %80, 50
  br i1 %exitcond119.not, label %.loopexit, label %Py_DECREF.exit88, !llvm.loop !29

.loopexit:                                        ; preds = %63, %79
  %.0 = phi ptr [ null, %79 ], [ @_Py_NoneStruct, %63 ]
  call void @llvm.lifetime.end.p0(i64 400, ptr nonnull %3) #4
  ret ptr %.0
}